; ModuleID = 'source-C-CXX/28/288.c'
source_filename = "source-C-CXX/28/288.c"
target datalayout = "e-m:e-p270:32:32-p271:32:32-p272:64:64-i64:64-f80:128-n8:16:32:64-S128"
target triple = "x86_64-pc-linux-gnu"

@.str = private unnamed_addr constant [3 x i8] c"%d\00", align 1
@.str.1 = private unnamed_addr constant [6 x i8] c"%.3f\0A\00", align 1

; Function Attrs: nofree nosync nounwind readnone sspstrong uwtable
define dso_local i32 @f1(i32 %0) local_unnamed_addr #0 {
  %2 = add i32 %0, -1
  %3 = icmp ult i32 %2, 2
  br i1 %3, label %15, label %4

4:                                                ; preds = %1, %4
  %5 = phi i32 [ %11, %4 ], [ %2, %1 ]
  %6 = phi i32 [ %9, %4 ], [ %0, %1 ]
  %7 = phi i32 [ %10, %4 ], [ 0, %1 ]
  %8 = tail call i32 @f1(i32 %5)
  %9 = add nsw i32 %6, -2
  %10 = add nsw i32 %8, %7
  %11 = add i32 %6, -3
  %12 = icmp ult i32 %11, 2
  br i1 %12, label %13, label %4

13:                                               ; preds = %4
  %14 = add i32 %10, 1
  br label %15

15:                                               ; preds = %13, %1
  %16 = phi i32 [ 1, %1 ], [ %14, %13 ]
  ret i32 %16
}

; Function Attrs: nofree nosync nounwind readnone sspstrong uwtable
define dso_local i32 @f2(i32 %0) local_unnamed_addr #0 {
  %2 = add i32 %0, -1
  %3 = icmp ult i32 %2, 2
  br i1 %3, label %15, label %4

4:                                                ; preds = %1, %4
  %5 = phi i32 [ %11, %4 ], [ %2, %1 ]
  %6 = phi i32 [ %9, %4 ], [ %0, %1 ]
  %7 = phi i32 [ %10, %4 ], [ 0, %1 ]
  %8 = tail call i32 @f2(i32 %5)
  %9 = add nsw i32 %6, -2
  %10 = add nsw i32 %8, %7
  %11 = add i32 %6, -3
  %12 = icmp ult i32 %11, 2
  br i1 %12, label %13, label %4

13:                                               ; preds = %4
  %14 = add i32 %10, 1
  br label %15

15:                                               ; preds = %13, %1
  %16 = phi i32 [ 1, %1 ], [ %14, %13 ]
  ret i32 %16
}

; Function Attrs: nofree nounwind sspstrong uwtable
define dso_local void @main() local_unnamed_addr #1 {
  %1 = alloca i32, align 4
  %2 = alloca i32, align 4
  %3 = bitcast i32* %1 to i8*
  call void @llvm.lifetime.start.p0i8(i64 4, i8* nonnull %3) #4
  %4 = bitcast i32* %2 to i8*
  call void @llvm.lifetime.start.p0i8(i64 4, i8* nonnull %4) #4
  %5 = call i32 (i8*, ...) @__isoc99_scanf(i8* getelementptr inbounds ([3 x i8], [3 x i8]* @.str, i64 0, i64 0), i32* nonnull %2)
  %6 = load i32, i32* %2, align 4, !tbaa !5
  %7 = icmp sgt i32 %6, 0
  br i1 %7, label %8, label %33

8:                                                ; preds = %0, %26
  %9 = phi i32 [ %30, %26 ], [ 0, %0 ]
  %10 = call i32 (i8*, ...) @__isoc99_scanf(i8* getelementptr inbounds ([3 x i8], [3 x i8]* @.str, i64 0, i64 0), i32* nonnull %1)
  %11 = load i32, i32* %1, align 4, !tbaa !5
  %12 = icmp sgt i32 %11, 0
  br i1 %12, label %13, label %26

13:                                               ; preds = %8
  %14 = add i32 %11, 1
  br label %15

15:                                               ; preds = %13, %15
  %16 = phi float [ %24, %15 ], [ 0.000000e+00, %13 ]
  %17 = phi i32 [ %18, %15 ], [ 2, %13 ]
  %18 = add nuw i32 %17, 1
  %19 = call i32 @f2(i32 %18)
  %20 = sitofp i32 %19 to float
  %21 = call i32 @f1(i32 %17)
  %22 = sitofp i32 %21 to float
  %23 = fdiv float %20, %22
  %24 = fadd float %16, %23
  %25 = icmp eq i32 %17, %14
  br i1 %25, label %26, label %15, !llvm.loop !9

26:                                               ; preds = %15, %8
  %27 = phi float [ 0.000000e+00, %8 ], [ %24, %15 ]
  %28 = fpext float %27 to double
  %29 = call i32 (i8*, ...) @printf(i8* nonnull dereferenceable(1) getelementptr inbounds ([6 x i8], [6 x i8]* @.str.1, i64 0, i64 0), double %28)
  %30 = add nuw nsw i32 %9, 1
  %31 = load i32, i32* %2, align 4, !tbaa !5
  %32 = icmp slt i32 %30, %31
  br i1 %32, label %8, label %33, !llvm.loop !11

33:                                               ; preds = %26, %0
  call void @llvm.lifetime.end.p0i8(i64 4, i8* nonnull %4) #4
  call void @llvm.lifetime.end.p0i8(i64 4, i8* nonnull %3) #4
  ret void
}

; Function Attrs: argmemonly mustprogress nofree nosync nounwind willreturn
declare void @llvm.lifetime.start.p0i8(i64 immarg, i8* nocapture) #2

; Function Attrs: nofree nounwind
declare noundef i32 @__isoc99_scanf(i8* nocapture noundef readonly, ...) local_unnamed_addr #3

; Function Attrs: nofree nounwind
declare noundef i32 @printf(i8* nocapture noundef readonly, ...) local_unnamed_addr #3

; Function Attrs: argmemonly mustprogress nofree nosync nounwind willreturn
declare void @llvm.lifetime.end.p0i8(i64 immarg, i8* nocapture) #2


!llvm.module.flags = !{!0, !1, !2, !3}
!llvm.ident = !{!4}

!0 = !{i32 1, !"wchar_size", i32 4}
!1 = !{i32 7, !"PIC Level", i32 2}
!2 = !{i32 7, !"PIE Level", i32 2}
!3 = !{i32 7, !"uwtable", i32 1}
!4 = !{!"clang version 13.0.0"}
!5 = !{!6, !6, i64 0}
!6 = !{!"int", !7, i64 0}
!7 = !{!"omnipotent char", !8, i64 0}
!8 = !{!"Simple C/C++ TBAA"}
!9 = distinct !{!9, !10}
!10 = !{!"llvm.loop.mustprogress"}
!11 = distinct !{!11, !10}
